target datalayout = "e-m:e-p270:32:32-p271:32:32-p272:64:64-i64:64-i128:128-f80:128-n8:16:32:64-S128"
target triple = "x86_64-pc-linux-gnu"

%class.DirectiveSet = type { ptr, ptr, %class.TriBoolArray, [4 x i8], %class.CHeapBitMap, %class.CHeapBitMap, [27 x i8], i8, i8, i8, i8, i8, i64, i64, i8, i8, i8, i8, i8, i8, i8, i8, i8, i64, ptr, ptr, i8, i8, i8, i8, i8, i8, i8, i64 }
%class.TriBoolArray = type { [27 x i32] }
%class.CHeapBitMap = type <{ %class.GrowableBitMap, i8, [7 x i8] }>
%class.GrowableBitMap = type { %class.BitMap }
%class.BitMap = type { ptr, i64 }

; Function Attrs: mustprogress nounwind uwtable
define hidden noundef zeroext i1 @_ZNK12DirectiveSet22should_collect_memstatEv(ptr noundef nonnull align 8 dereferenceable(280) %0) #1 align 2 {
  %2 = alloca ptr, align 8
  store ptr %0, ptr %2, align 8
  %3 = load ptr, ptr %2, align 8
  %4 = getelementptr inbounds %class.DirectiveSet, ptr %3, i32 0, i32 13
  %5 = load i64, ptr %4, align 8
  %6 = icmp ugt i64 %5, 0
  br i1 %6, label %11, label %7

7:                                                ; preds = %1
  %8 = getelementptr inbounds %class.DirectiveSet, ptr %3, i32 0, i32 12
  %9 = load i64, ptr %8, align 8
  %10 = icmp ne i64 %9, 0
  br label %11

11:                                               ; preds = %7, %1
  %12 = phi i1 [ true, %1 ], [ %10, %7 ]
  ret i1 %12
}