; Function Attrs: mustprogress nofree norecurse nosync nounwind willreturn memory(argmem: read) uwtable
define hidden noundef zeroext i1 @_ZNK12DirectiveSet22should_collect_memstatEv(ptr nocapture noundef nonnull readonly align 8 dereferenceable(280) %0) local_unnamed_addr #2 align 2 {
  %2 = getelementptr inbounds i8, ptr %0, i64 216
  %3 = load i64, ptr %2, align 8
  %.not = icmp ne i64 %3, 0
  %4 = getelementptr inbounds i8, ptr %0, i64 208
  %5 = load i64, ptr %4, align 8
  %6 = icmp ne i64 %5, 0
  %7 = select i1 %.not, i1 true, i1 %6
  ret i1 %7
}